; Function Attrs: mustprogress nofree norecurse nosync nounwind willreturn memory(write, argmem: readwrite, inaccessiblemem: none) uwtable
define hidden void @_ir_SNAPSHOT_SET_OP(ptr nocapture noundef readonly %0, i32 noundef %1, i32 noundef %2, i32 noundef %3) local_unnamed_addr #11 {
  %5 = load ptr, ptr %0, align 8
  %6 = sext i32 %1 to i64
  %7 = getelementptr inbounds %struct._ir_insn, ptr %5, i64 %6
  %8 = sext i32 %2 to i64
  %9 = getelementptr i32, ptr %7, i64 %8
  %10 = getelementptr i8, ptr %9, i64 4
  store i32 %3, ptr %10, align 4
  ret void
}